; Function Attrs: nounwind uwtable
define dso_local range(i32 0, 2) i32 @LZ4IO_compressFilename_Legacy(ptr noundef %0, ptr noundef %1, i32 noundef %2, ptr noundef readonly captures(none) %3) local_unnamed_addr #11 {
  %5 = alloca i64, align 8
  %6 = tail call i64 @TIME_getTime() #24
  %7 = tail call i64 @clock() #24
  call void @llvm.lifetime.start.p0(i64 8, ptr nonnull %5) #24
  %8 = call fastcc i32 @LZ4IO_compressLegacy_internal(ptr noundef %5, ptr noundef %0, ptr noundef %1, i32 noundef %2, ptr noundef %3)
  %9 = load i64, ptr %5, align 8, !tbaa !32
  %10 = tail call i64 @TIME_clockSpan_ns(i64 %6) #24
  %11 = tail call i64 @clock() #24
  %12 = load i32, ptr @g_displayLevel, align 4, !tbaa !4
  %13 = icmp sgt i32 %12, 2
  br i1 %13, label %14, label %LZ4IO_finalTimeDisplay.exit

14:                                               ; preds = %4
  %15 = sitofp i64 %7 to double
  %16 = fdiv double %15, 1.000000e+06
  %17 = sitofp i64 %11 to double
  %18 = fdiv double %17, 1.000000e+06
  %19 = fsub double %18, %16
  %20 = tail call i64 @llvm.umax.i64(i64 %10, i64 1)
  %21 = uitofp i64 %20 to double
  %22 = fdiv double %21, 1.000000e+09
  %23 = load ptr, ptr @stderr, align 8, !tbaa !8
  %24 = uitofp i64 %9 to double
  %25 = fdiv double %24, %22
  %26 = fmul double %25, 0x3F50000000000000
  %27 = fmul double %26, 0x3F50000000000000
  %28 = fdiv double %19, %22
  %29 = fmul double %28, 1.000000e+02
  %30 = tail call i32 (ptr, ptr, ...) @fprintf(ptr noundef %23, ptr noundef nonnull @.str.49, double noundef %22, double noundef %27, double noundef %29) #26
  %31 = load i32, ptr @g_displayLevel, align 4, !tbaa !4
  %32 = icmp sgt i32 %31, 3
  br i1 %32, label %33, label %LZ4IO_finalTimeDisplay.exit

33:                                               ; preds = %14
  %34 = load ptr, ptr @stderr, align 8, !tbaa !8
  %35 = tail call i32 @fflush(ptr noundef %34)
  br label %LZ4IO_finalTimeDisplay.exit

LZ4IO_finalTimeDisplay.exit:                      ; preds = %4, %14, %33
  call void @llvm.lifetime.end.p0(i64 8, ptr nonnull %5) #24
  ret i32 %8
}